; Function Attrs: nounwind uwtable
define hidden void @SDL_RemoveSurfaceAlternateImages_REAL(ptr noundef captures(address_is_null) %0) local_unnamed_addr #2 {
  %.not.i = icmp eq ptr %0, null
  br i1 %.not.i, label %SDL_SurfaceValid.exit.thread, label %SDL_SurfaceValid.exit

SDL_SurfaceValid.exit:                            ; preds = %1
  %2 = getelementptr inbounds nuw i8, ptr %0, i64 40
  %3 = load ptr, ptr %2, align 8
  %4 = icmp eq ptr %3, @SDL_surface_magic
  br i1 %4, label %5, label %SDL_SurfaceValid.exit.thread

5:                                                ; preds = %SDL_SurfaceValid.exit
  %6 = getelementptr inbounds nuw i8, ptr %0, i64 80
  %7 = load i32, ptr %6, align 8
  %8 = icmp sgt i32 %7, 0
  br i1 %8, label %.lr.ph, label %SDL_SurfaceValid.exit.thread

.lr.ph:                                           ; preds = %5
  %9 = getelementptr inbounds nuw i8, ptr %0, i64 88
  br label %12

._crit_edge:                                      ; preds = %12
  %10 = getelementptr inbounds nuw i8, ptr %0, i64 88
  %11 = load ptr, ptr %10, align 8
  tail call void @SDL_free_REAL(ptr noundef %11) #10
  store ptr null, ptr %10, align 8
  store i32 0, ptr %6, align 8
  br label %SDL_SurfaceValid.exit.thread

12:                                               ; preds = %.lr.ph, %12
  %indvars.iv = phi i64 [ 0, %.lr.ph ], [ %indvars.iv.next, %12 ]
  %13 = load ptr, ptr %9, align 8
  %14 = getelementptr inbounds nuw ptr, ptr %13, i64 %indvars.iv
  %15 = load ptr, ptr %14, align 8
  tail call void @SDL_DestroySurface_REAL(ptr noundef %15)
  %indvars.iv.next = add nuw nsw i64 %indvars.iv, 1
  %16 = load i32, ptr %6, align 8
  %17 = sext i32 %16 to i64
  %18 = icmp slt i64 %indvars.iv.next, %17
  br i1 %18, label %12, label %._crit_edge, !llvm.loop !3

SDL_SurfaceValid.exit.thread:                     ; preds = %1, %SDL_SurfaceValid.exit, %._crit_edge, %5
  ret void
}